(lp0
F-65.0
aF-65.12195121951218
aF-65.24092801903626
aF-65.35700294540122
aF-65.47024677600118
aF-65.58072856195236
aF-65.6885156701974
aF-65.79367382458281
aF-65.89626714593443
aF-65.99635819115552
aF-66.09400799137123
aF-66.18927608914265
aF-66.2822205747733
aF-66.37289812173005
aF-66.46136402120003
aF-66.5476722158049
aF-66.63187533249257
aF-66.71402471462689
aF-66.79417045329451
aF-66.8723614178483
aF-66.94864528570564
aF-67.02306857142013
aF-67.09567665504402
aF-67.16651380979903
aF-67.23562322907222
aF-67.30304705275337
aF-67.3688263929301
aF-67.43300135895619
aF-67.49561108190846
aF-67.55669373844728
aF-67.6162865740949
aF-67.67442592594624
aF-67.73114724482559
aF-67.78648511690301
aF-67.84047328478341
aF-67.89314466808138
aF-67.94453138349402
aF-67.99466476438441
aF-68.04357537988722
aF-68.0912930535485
aF-68.13784688151073
aF-68.18326525025437
aF-68.22757585390669
aF-68.27080571112847
aF-68.31298118158875
aF-68.35412798203781
aF-68.3942712019881
aF-68.43343531901277
aF-68.471644213671
aF-68.50892118406927
aF-68.54528896006757
aF-68.58076971713908
aF-68.61538508989177
aF-68.64915618526027
aF-68.68210359537586
aF-68.7142474101228
aF-68.74560722938809
aF-68.77620217501276
aF-68.80605090245146
aF-68.83517161214776
aF-68.86358206063196
aF-68.89129957134824
aF-68.91834104521779
aF-68.94472297094418
aF-68.97046143506749
aF-68.99557213177316
aF-69.02007037246162
aF-69.0439710950845
aF-69.06728887325316
aF-69.09003792512503
aF-69.1122321220732
aF-69.13388499714458
aF-69.15500975331177
aF-69.17561927152367
aF-69.19572611855968
aF-69.21534255469237
aF-69.23448054116328
aF-69.25315174747637
aF-69.27136755851353
aF-69.28913908147662
aF-69.30647715266011
aF-69.32339234405863
aF-69.3398949698133
aF-69.35599509250078
aF-69.37170252926904
aF-69.38702685782346
aF-69.40197742226678
aF-69.41656333879686
aF-69.43079350126523
aF-69.44467658660022
aF-69.45822106009777
aF-69.47143518058319
aF-69.48432700544701
aF-69.49690439555806
aF-69.50917502005665
aF-69.52114636103087
aF-69.5328257180789
aF-69.5442202127599
aF-69.55533679293649
aF-69.5661822370112
aF-69.5767631580597
aF-69.58708600786312
aF-69.59715708084207
aF-69.60698251789469
aF-69.61656831014116
aF-69.62592030257674
aF-69.63504419763585
aF-69.64394555866912
aF-69.65262981333572
aF-69.6611022569129
aF-69.66936805552477
aF-69.67743224929247
aF-69.68529975540729
aF-69.69297537112905
aF-69.70046377671127
aF-69.7077695382549
aF-69.71489711049257
aF-69.72185083950495
aF-69.72863496537069
aF-69.73525362475189
aF-69.74171085341648
aF-69.748010588699
aF-69.75415667190147
aF-69.76015285063558
aF-69.76600278110789
aF-69.77171003034915
aF-69.77727807838941
aF-69.78271032037992
aF-69.78801006866334
aF-69.79318055479351
aF-69.79822493150586
aF-69.80314627463986
aF-69.80794758501449
aF-69.81263179025804
aF-69.81720174659321
aF-69.82166024057874
aF-69.82600999080853
aF-69.8302536495693
aF-69.83439380445785
aF-69.83843297995887
aF-69.84237363898426
aF-69.84621818437488
aF-69.84996896036573
aF-69.85362825401535
aF-69.85719829660034
aF-69.86068126497595
aF-69.86407928290336
aF-69.86739442234474
aF-69.87062870472658
aF-69.87378410217228
aF-69.87686253870466
aF-69.87986589141917
aF-69.88279599162846
aF-69.88565462597899
aF-69.88844353754047
aF-69.89116442686876
aF-69.89381895304268
aF-69.89640873467579
aF-69.8989353509032
aF-69.90140034234459
aF-69.9038052120435
aF-69.9061514263839
aF-69.90844041598429
aF-69.91067357657003
aF-69.91285226982443
aF-69.91497782421895
aF-69.91705153582336
aF-69.91907466909596
aF-69.92104845765459
aF-69.92297410502887
aF-69.92485278539402
aF-69.92668564428685
aF-69.92847379930424
aF-69.93021834078462
aF-69.9319203324728
aF-69.93358081216859
aF-69.9352007923596
aF-69.93678126083863
aF-69.93832318130598
aF-69.93982749395705
aF-69.94129511605566
aF-69.94272694249332
aF-69.94412384633495
aF-69.94548667935116
aF-69.94681627253772
aF-69.94811343662217
aF-69.94937896255821
aF-69.950613622008
aF-69.95181816781269
aF-69.9529933344514
aF-69.95413983848918
aF-69.95525837901384
aF-69.95634963806228
aF-69.95741428103636
aF-69.95845295710865
aF-69.9594662996182
aF-69.96045492645678
aF-69.96141944044564
aF-69.96236042970307
aF-69.963278468003
aF-69.96417411512488
aF-69.96504791719501
aF-69.96590040701952
aF-69.96673210440929
aF-69.96754351649686
aF-69.96833513804572
aF-69.96910745175192
aF-69.96986092853847
aF-69.9705960278424
aF-69.97131319789503
aF-69.97201287599515
aF-69.97269548877576
aF-69.97336145246415
aF-69.97401117313575
aF-69.97464504696171
aF-69.97526346045045
aF-69.97586679068337
aF-69.97645540554475
aF-69.9770296639461
aF-69.97758991604498
aF-69.97813650345851
aF-69.97866975947173
aF-69.97919000924071
aF-69.97969756999093
aF-69.98019275121067
aF-69.98067585483967
aF-69.98114717545334
aF-69.98160700044228
aF-69.98205561018759
aF-69.98249327823179
aF-69.98292027144565
aF-69.98333685019088
aF-69.9837432684789
aF-69.98413977412577
aF-69.98452660890318
aF-69.98490400868603
aF-69.98527220359612
aF-69.98563141814256
aF-69.98598187135859
aF-69.98632377693521
aF-69.98665734335142
aF-69.98698277400139
aF-69.98730026731843
aF-69.98761001689603
aF-69.98791221160587
aF-69.98820703571305
aF-69.98849466898834
aF-69.98877528681788
aF-69.98904906031014
aF-69.98931615640014
aF-69.98957673795135
aF-69.98983096385498
aF-69.99007898912681
aF-69.99032096500177
aF-69.99055703902611
aF-69.99078735514743
aF-69.99101205380238
aF-69.99123127200232
aF-69.9914451434169
aF-69.9916537984555
aF-69.99185736434683
aF-69.99205596521642
aF-69.99224972216237
aF-69.99243875332914
aF-69.99262317397965
aF-69.99280309656551
aF-69.99297863079562
aF-69.99314988370304
aF-69.99331695971028
aF-69.99347996069297
aF-69.99363898604192
aF-69.99379413272382
aF-69.99394549534031
aF-69.99409316618568
aF-69.9942372353031
aF-69.99437779053962
aF-69.99451491759963
aF-69.9946487000972
aF-69.99477921960703
aF-69.99490655571417
aF-69.9950307860626
aF-69.99515198640253
aF-69.99527023063662
aF-69.995385590865
aF-69.99549813742927
aF-69.99560793895539
aF-69.9957150623955
aF-69.99581957306879
aF-69.99592153470125
aF-69.99602100946464
aF-69.99611805801429
aF-69.99621273952613
aF-69.99630511173281
aF-69.99639523095884
aF-69.99648315215497
aF-69.99656892893168
aF-69.99665261359188
aF-69.99673425716281
aF-69.99681390942713
aF-69.9968916189533
aF-69.99696743312516
aF-69.9970413981709
aF-69.99711355919112
aF-69.99718396018646
aF-69.99725264408436
aF-69.99731965276523
aF-69.99738502708803
aF-69.99744880691514
aF-69.99751103113672
aF-69.99757173769437
aF-69.99763096360427
aF-69.99768874497977
aF-69.99774511705343
aF-69.99780011419847
aF-69.99785376994973
aF-69.99790611702413
aF-69.99795718734062
aF-69.99800701203962
aF-69.99805562150208
aF-69.99810304536788
aF-69.99814931255403
aF-69.99819445127223
aF-69.99823848904607
aF-69.99828145272788
aF-69.998323368515
aF-69.99836426196586
aF-69.99840415801548
aF-69.99844308099071
aF-69.99848105462509
aF-69.99851810207326
aF-69.99855424592513
aF-69.99858950821964
aF-69.99862391045818
aF-69.99865747361774
aF-69.99869021816365
aF-69.99872216406209
aF-69.99875333079228
aF-69.99878373735832
aF-69.9988134023008
aF-69.99884234370809
aF-69.9988705792274
aF-69.99889812607552
aF-69.99892500104929
aF-69.99895122053589
aF-69.99897680052281
aF-69.99900175660763
aF-69.99902610400744
aF-69.99904985756824
aF-69.99907303177389
aF-69.99909564075502
aF-69.99911769829758
aF-69.9991392178513
aF-69.99916021253784
aF-69.99918069515887
aF-69.99920067820378
aF-69.99922017385734
aF-69.99923919400716
aF-69.99925775025089
aF-69.99927585390331
aF-69.99929351600323
aF-69.99931074732022
aF-69.99932755836119
aF-69.99934395937677
aF-69.99935996036758
aF-69.99937557109033
aF-69.99939080106373
aF-69.99940565957436
aF-69.9994201556823
aF-69.99943429822663
aF-69.99944809583086
aF-69.99946155690816
aF-69.9994746896665
aF-69.99948750211365
aF-69.9995000020621
aF-69.99951219713377
aF-69.99952409476465
aF-69.99953570220941
aF-69.99954702654577
aF-69.9995580746788
aF-69.99956885334517
aF-69.99957936911724
aF-69.99958962840707
aF-69.99959963747031
aF-69.99960940241006
aF-69.99961892918054
aF-69.99962822359078
aF-69.99963729130808
aF-69.99964613786153
aF-69.9996547686454
aF-69.99966318892234
aF-69.99967140382667
aF-69.99967941836748
aF-69.99968723743169
aF-69.999694865787
aF-69.99970230808488
aF-69.9997095688633
aF-69.99971665254955
aF-69.99972356346298
aF-69.99973030581754
aF-69.99973688372442
aF-69.99974330119456
aF-69.99974956214103
aF-69.99975567038149
aF-69.99976162964047
aF-69.99976744355168
aF-69.99977311566018
aF-69.99977864942456
aF-69.99978404821908
aF-69.99978931533569
aF-69.99979445398604
aF-69.99979946730346
aF-69.99980435834485
aF-69.99980913009253
aF-69.99981378545613
aF-69.99981832727427
aF-69.99982275831636
aF-69.99982708128425
aF-69.9998312988139
aF-69.99983541347697
aF-69.99983942778242
aF-69.99984334417798
aF-69.99984716505168
aF-69.99985089273335
aF-69.99985452949595
aF-69.99985807755702
aF-69.99986153908002
aF-69.99986491617562
aF-69.99986821090305
aF-69.99987142527127
aF-69.99987456124026
aF-69.9998776207222
aF-69.99988060558263
aF-69.99988351764159
aF-69.99988635867473
aF-69.99988913041437
aF-69.99989183455061
aF-69.99989447273231
aF-69.99989704656811
aF-69.99989955762743
aF-69.99990200744139
aF-69.9999043975038
aF-69.999906729272
aF-69.9999090041678
aF-69.99991122357835
aF-69.99991338885692
aF-69.99991550132383
aF-69.99991756226714
aF-69.99991957294355
aF-69.99992153457907
aF-69.99992344836983
aF-69.99992531548276
aF-69.99992713705635
aF-69.99992891420132
aF-69.99993064800128
aF-69.99993233951345
aF-69.99993398976922
aF-69.99993559977484
aF-69.99993717051204
aF-69.99993870293858
aF-69.99994019798886
aF-69.9999416565745
aF-69.99994307958488
aF-69.99994446788769
aF-69.99994582232945
aF-69.99994714373605
aF-69.99994843291321
aF-69.99994969064704
aF-69.99995091770444
aF-69.9999521148336
aF-69.9999532827645
aF-69.99995442220926
aF-69.99995553386269
aF-69.99995661840262
aF-69.99995767649037
aF-69.99995870877109
aF-69.99995971587424
aF-69.99996069841389
aF-69.99996165698916
aF-69.99996259218454
aF-69.99996350457029
aF-69.99996439470272
aF-69.9999652631246
aF-69.99996611036546
aF-69.99996693694192
aF-69.99996774335797
aF-69.99996853010533
aF-69.99996929766374
aF-69.9999700465012
aF-69.99997077707434
aF-69.99997148982862
aF-69.99997218519866
aF-69.99997286360845
aF-69.99997352547166
aF-69.99997417119187
aF-69.9999748011628
aF-69.99997541576857
aF-69.99997601538398
aF-69.99997660037461
aF-69.99997717109719
aF-69.99997772789969
aF-69.99997827112165
aF-69.99997880109429
aF-69.99997931814077
aF-69.99997982257636
aF-69.99998031470865
aF-69.99998079483771
aF-69.9999812632563
aF-69.99998172025005
aF-69.99998216609761
aF-69.99998260107084
aF-69.99998302543497
aF-69.99998343944876
aF-69.99998384336465
aF-69.99998423742892
aF-69.99998462188188
aF-69.99998499695793
aF-69.9999853628858
aF-69.99998571988858
aF-69.99998606818399
aF-69.99998640798438
aF-69.99998673949696
aF-69.99998706292386
aF-69.99998737846231
aF-69.99998768630469
aF-69.99998798663873
aF-69.99998827964754
aF-69.9999885655098
aF-69.9999888443998
aF-69.9999891164876
aF-69.99998938193912
aF-69.99998964091621
aF-69.9999898935768
aF-69.99999014007493
aF-69.9999903805609
aF-69.99999061518137
aF-69.99999084407939
aF-69.99999106739453
aF-69.99999128526296
aF-69.99999149781753
aF-69.99999170518784
aF-69.99999190750033
aF-69.99999210487837
aF-69.99999229744232
aF-69.99999248530958
aF-69.99999266859471
aF-69.99999284740947
aF-69.9999930218629
aF-69.99999319206137
aF-69.99999335810865
aF-69.999993520106
aF-69.9999936781522
aF-69.9999938323436
aF-69.99999398277424
aF-69.99999412953585
aF-69.9999942727179
aF-69.9999944124077
aF-69.99999454869044
aF-69.99999468164921
aF-69.99999481136508
aF-69.99999493791715
aF-69.99999506138259
aF-69.99999518183668
aF-69.99999529935286
aF-69.9999954140028
aF-69.99999552585639
aF-69.99999563498184
aF-69.9999957414457
aF-69.99999584531288
aF-69.99999594664672
aF-69.999996045509
aF-69.99999614196
aF-69.99999623605854
aF-69.999996327862
aF-69.99999641742633
aF-69.99999650480618
aF-69.9999965900548
aF-69.9999966732242
aF-69.99999675436507
aF-69.9999968335269
aF-69.99999691075794
aF-69.99999698610532
aF-69.99999705961494
aF-69.99999713133165
aF-69.99999720129918
aF-69.99999726956018
aF-69.99999733615627
aF-69.99999740112807
aF-69.99999746451519
aF-69.99999752635628
aF-69.99999758668906
aF-69.99999764555031
aF-69.99999770297592
aF-69.99999775900089
aF-69.9999978136594
aF-69.99999786698478
aF-69.99999791900954
aF-69.9999979697654
aF-69.99999801928332
aF-69.99999806759348
aF-69.99999811472534
aF-69.99999816070765
aF-69.99999820556843
aF-69.99999824933505
aF-69.99999829203419
aF-69.99999833369189
aF-69.99999837433356
aF-69.99999841398396
aF-69.99999845266728
aF-69.99999849040711
aF-69.99999852722645
aF-69.99999856314776
aF-69.99999859819293
aF-69.99999863238335
aF-69.99999866573985
aF-69.99999869828278
aF-69.99999873003198
aF-69.99999876100681
aF-69.99999879122615
aF-69.99999882070844
aF-69.99999884947165
aF-69.99999887753332
aF-69.99999890491056
aF-69.99999893162006
aF-69.9999989576781
aF-69.99999898310058
aF-69.999999007903
aF-69.99999903210049
aF-69.99999905570779
aF-69.99999907873931
aF-69.99999910120908
aF-69.99999912313082
aF-69.99999914451787
aF-69.99999916538329
aF-69.9999991857398
aF-69.9999992055998
aF-69.99999922497543
aF-69.99999924387846
aF-69.99999926232046
aF-69.99999928031264
aF-69.99999929786598
aF-69.9999993149912
aF-69.99999933169873
aF-69.99999934799877
aF-69.99999936390124
aF-69.99999937941584
aF-69.99999939455203
aF-69.99999940931906
aF-69.99999942372591
aF-69.99999943778137
aF-69.99999945149402
aF-69.99999946487222
aF-69.99999947792412
aF-69.99999949065767
aF-69.99999950308066
aF-69.99999951520064
aF-69.99999952702501
aF-69.99999953856099
aF-69.9999995498156
aF-69.9999995607957
aF-69.999999571508
aF-69.99999958195902
aF-69.99999959215513
aF-69.99999960210258
aF-69.9999996118074
aF-69.9999996212755
aF-69.99999963051269
aF-69.99999963952457
aF-69.99999964831666
aF-69.9999996568943
aF-69.99999966526273
aF-69.99999967342706
aF-69.99999968139225
aF-69.99999968916318
aF-69.99999969674457
aF-69.99999970414105
aF-69.99999971135712
aF-69.99999971839719
aF-69.99999972526555
aF-69.9999997319664
aF-69.9999997385038
aF-69.99999974488176
aF-69.99999975110416
aF-69.99999975717479
aF-69.99999976309736
aF-69.99999976887548
aF-69.99999977451267
aF-69.99999978001236
aF-69.99999978537791
aF-69.99999979061259
aF-69.9999997957196
aF-69.99999980070206
aF-69.99999980556298
aF-69.99999981030534
aF-69.99999981493204
aF-69.99999981944589
aF-69.99999982384965
aF-69.999999828146
aF-69.99999983233756
aF-69.9999998364269
aF-69.99999984041648
aF-69.99999984430876
aF-69.99999984810611
aF-69.99999985181084
aF-69.99999985542522
aF-69.99999985895143
aF-69.99999986239163
aF-69.99999986574794
aF-69.99999986902237
aF-69.99999987221695
aF-69.9999998753336
aF-69.99999987837424
aF-69.99999988134073
aF-69.99999988423485
aF-69.9999998870584
aF-69.99999988981307
aF-69.99999989250055
aF-69.99999989512249
aF-69.99999989768047
aF-69.99999990017606
aF-69.9999999026108
aF-69.99999990498614
aF-69.99999990730355
aF-69.99999990956444
aF-69.99999991177019
aF-69.99999991392214
aF-69.9999999160216
aF-69.99999991806985
aF-69.99999992006815
aF-69.99999992201771
aF-69.99999992391972
aF-69.99999992577533
aF-69.99999992758569
aF-69.99999992935189
aF-69.99999993107501
aF-69.99999993275611
aF-69.9999999343962
aF-69.9999999359963
aF-69.99999993755736
aF-69.99999993908035
aF-69.9999999405662
aF-69.9999999420158
aF-69.99999994343005
aF-69.99999994480982
aF-69.99999994615592
aF-69.99999994746919
aF-69.99999994875043
aF-69.99999995000042
aF-69.99999995121992
aF-69.99999995240968
aF-69.99999995357042
aF-69.99999995470286
aF-69.99999995580767
aF-69.99999995688553
aF-69.9999999579371
aF-69.99999995896303
aF-69.99999995996393
aF-69.99999996094041
aF-69.99999996189308
aF-69.99999996282251
aF-69.99999996372928
aF-69.99999996461393
aF-69.999999965477
aF-69.99999996631902
aF-69.99999996714051
aF-69.99999996794196
aF-69.99999996872387
aF-69.99999996948671
aF-69.99999997023093
aF-69.999999970957
aF-69.99999997166537
aF-69.99999997235646
aF-69.9999999730307
aF-69.99999997368849
aF-69.99999997433024
aF-69.99999997495632
aF-69.99999997556715
aF-69.99999997616307
aF-69.99999997674446
aF-69.99999997731167
aF-69.99999997786504
aF-69.99999997840492
aF-69.99999997893163
aF-69.99999997944549
aF-69.99999997994682
aF-69.99999998043592
aF-69.99999998091309
aF-69.99999998137862
aF-69.9999999818328
aF-69.99999998227591
aF-69.9999999827082
aF-69.99999998312995
aF-69.99999998354141
aF-69.99999998394284
aF-69.99999998433448
aF-69.99999998471657
aF-69.99999998508933
aF-69.999999985453
aF-69.9999999858078
aF-69.99999998615395
aF-69.99999998649166
aF-69.99999998682114
aF-69.67558970996146
aF-68.93362059523022
aF-67.99947283205073
aF-67.01651968839899
aF-66.0707634155115
aF-65.20973282578605
aF-64.45604761145535
aF-63.81676026018741
aF-63.28960748916215
aF-62.86709911905282
aF-62.539135652364784
aF-62.29464366715955
aF-62.12256477151314
aF-62.01242433616982
aF-61.95463063997252
aF-61.9406039475319
aF-61.96280087449814
aF-62.014676707827604
aF-62.09061332843681
aF-62.18583045264354
aF-62.296291347142116
aF-62.418609842647356
aF-62.54996262393449
aF-62.688008914078026
aF-62.830818470709836
aF-62.97680805404031
aF-63.12468606413843
aF-63.27340478002747
aF-63.42211949868761
aF-63.57015382253274
aF-63.716970348276234
aF-63.8621460471534
aF-64.0053516819007
aF-64.1463346701196
aF-64.28490487039446
aF-64.42092283280125
aF-64.55429011683613
aF-64.68494133599302
aF-64.81283763864589
aF-64.93796137943868
aF-65.06142573603772
aF-65.18187876686605
aF-65.29939391889368
aF-65.41404284770114
aF-65.52589546117183
aF-65.63501996211885
aF-65.74148288987203
aF-65.84534916085074
aF-65.94668210814706
aF-66.04554352014345
aF-66.14199367818873
aF-66.23609139335484
aF-66.32789404229739
aF-66.41745760224134
aF-66.50483668511349
aF-66.59008457084242
aF-66.67325323984625
aF-66.75439340472803
aF-66.83355454119807
aF-66.910784918242
aF-66.98613162755316
aF-67.05964061224698
aF-67.1313566948751
aF-67.20132360475618
aF-67.26958400464017
aF-67.3361795167221
aF-67.40115074802155
aF-67.46453731514296
aF-67.52637786843215
aF-67.58671011554355
aF-67.64557084443273
aF-67.70299594578802
aF-67.75902043491513
aF-67.81367847308792
aF-67.86700338837845
aF-67.91902769597897
aF-67.96978311802826
aF-68.01930060295439
aF-68.06761034434574
aF-68.1147417993617
aF-68.16072370669433
aF-68.20558410409203
aF-68.24935034545562
aF-68.29204911751768
aF-68.3337064561148
aF-68.37434776206321
aF-68.41399781664703
aF-68.4526807967288
aF-68.49042028949151
aF-68.52723930682097
aF-68.56316029933753
aF-68.59820517008538
aF-68.63239528788817
aF-68.6657515003787
aF-68.69829414671092
aF-68.73004306996187
aF-68.76101762923109
aF-68.79123671144497
aF-68.82071874287314
aF-68.84948170036404
aF-68.87754312230638
aF-68.9049201193233
aF-68.93162938470564
aF-68.95768720459087
aF-68.98310946789353
aF-69.00791167599368
aF-69.03210895218895
aF-69.05571605091605
aF-69.07874736674736
aF-69.10121694316815
aF-69.12313848113966
aF-69.14452534745332
aF-69.16539058288129
aF-69.18574691012809
aF-69.20560674158838
aF-69.2249821869155
aF-69.24388506040536
aF-69.26232688820035
aF-69.28031891531741
aF-69.29787211250479
aF-69.3149971829315
aF-69.33170456871366
aF-69.34800445728162
aF-69.36390678759182
aF-69.37942125618713
aF-69.3945573231094
aF-69.4093242176677
aF-69.42373094406605
aF-69.43778628689371
aF-69.45149881648167
aF-69.46487689412847
aF-69.4779286771985
aF-69.4906621240961
aF-69.50308499911814
aF-69.51520487718844
aF-69.52702914847653
aF-69.53856502290392
aF-69.54981953454042
aF-69.56079954589309
aF-69.57151175209081
aF-69.58196268496664
aF-69.59215871704062
aF-69.60210606540548
aF-69.61181079551754
aF-69.62127882489516
aF-69.63051592672699
aF-69.63952773339219
aF-69.64831973989482
aF-69.65689730721445
aF-69.66526566557508
aF-69.67342991763422
aF-69.68139504159436
aF-69.6891658942384
aF-69.69674721389111
aF-69.7041436233084
aF-69.711359632496
aF-69.71839964145951
aF-69.72526794288733
aF-69.73196872476812
aF-69.7385060729445
aF-69.74488397360439
aF-69.7511063157116
aF-69.75717689337716
aF-69.76309940817285
aF-69.76887747138815
aF-69.77451460623234
aF-69.78001424998277
aF-69.78537975608074
aF-69.79061439617634
aF-69.79572136212326
aF-69.80070376792513
aF-69.80556465163427
aF-69.81030697720416
aF-69.81493363629674
aF-69.8194474500456
aF-69.8238511707762
aF-69.82814748368409
aF-69.83233900847229
aF-69.83642830094857
aF-69.84041785458398
aF-69.84431010203315
aF-69.84810741661771
aF-69.85181211377338
aF-69.85542645246183
aF-69.85895263654812
aF-69.8623928161445
aF-69.86574908892148
aF-69.8690235013868
aF-69.87221805013347
aF-69.87533468305705
aF-69.87837530054347
aF-69.88134175662778
aF-69.88423586012466
aF-69.88705937573138
aF-69.88981402510379
aF-69.89250148790613
aF-69.89512340283525
aF-69.89768136861976
aF-69.90017694499488
aF-69.90261165365354
aF-69.90498697917418
aF-69.90730436992604
aF-69.90956523895223
aF-69.91177096483143
aF-69.91392289251847
aF-69.91602233416437
aF-69.91807056991645
aF-69.92006884869897
aF-69.9220183889746
aF-69.92392037948743
aF-69.92577597998773
aF-69.92758632193924
aF-69.92935250920902
aF-69.93107561874051
aF-69.93275670121025
aF-69.93439678166854
aF-69.93599686016442
aF-69.93755791235553
aF-69.93908089010296
aF-69.94056672205167
aF-69.94201631419675
aF-69.94343055043585
aF-69.94481029310815
aF-69.94615638352015
aF-69.94746964245869
aF-69.9487508706914
aF-69.95000084945502
aF-69.95122034093173
aF-69.95241008871388
aF-69.95357081825745
aF-69.95470323732434
aF-69.95580803641398
aF-69.95688588918438
aF-69.95793745286281
aF-69.95896336864664
aF-69.95996426209427
aF-69.96094074350661
aF-69.96189340829913
aF-69.96282283736501
aF-69.96372959742928
aF-69.96461424139441
aF-69.96547730867748
aF-69.966319325539
aF-69.9671408054039
aF-69.96794224917454
aF-69.96872414553614
aF-69.96948697125477
aF-69.97023119146806
aF-69.97095725996884
aF-69.9716656194818
aF-69.97235670193346
aF-69.97303092871557
aF-69.97368871094203
aF-69.97433044969954
aF-69.97495653629223
aF-69.97556735248023
aF-69.97616327071242
aF-69.97674465435358
aF-69.97731185790593
aF-69.9778652272253
aF-69.978405099732
aF-69.9789318046166
aF-69.97944566304058
aF-69.97994698833227
aF-69.98043608617783
aF-69.98091325480765
aF-69.9813787851782
aF-69.98183296114945
aF-69.982276059658
aF-69.98270835088586
aF-69.98313009842522
aF-69.98354155943925
aF-69.98394298481878
aF-69.9843346193354
aF-69.98471670179063
aF-69.9850894651616
aF-69.98545313674302
aF-69.98580793828587
aF-69.98615408613256
aF-69.98649179134884
aF-69.98682125985253
aF-69.98714269253905
aF-69.98745628540395
aF-69.9877622296624
aF-69.98806071186576
aF-69.98835191401537
aF-69.98863601367353
aF-69.98891318407173
aF-69.98918359421633
aF-69.98944740899154
aF-69.98970478926003
aF-69.989955891961
aF-69.99020087020585
aF-69.99043987337157
aF-69.99067304719178
aF-69.99090053384563
aF-69.99112247204452
aF-69.99133899711661
aF-69.99155024108939
aF-69.99175633277014
aF-69.99195739782452
aF-69.99215355885319
aF-69.99234493546652
aF-69.99253164435758
aF-69.99271379937325
aF-69.99289151158365
aF-69.99306488934991
aF-69.99323403839016
aF-69.99339906184406
aF-69.99356006033567
aF-69.9937171320348
aF-69.99387037271688
aF-69.99401987582135
aF-69.99416573250863
aF-69.99430803171575
aF-69.99444686021049
aF-69.99458230264437
aF-69.99471444160427
aF-69.9948433576627
aF-69.99496912942703
aF-69.99509183358735
aF-69.99521154496327
aF-69.99532833654953
aF-69.99544227956052
aF-69.99555344347368
aF-69.99566189607188
aF-69.99576770348476
aF-69.99587093022903
aF-69.99597163924784
aF-69.99606989194912
aF-69.99616574824304
aF-69.99625926657858
aF-69.9963505039791
aF-69.99643951607717
aF-69.99652635714847
aF-69.99661108014485
aF-69.99669373672668
aF-69.99677437729433
aF-69.99685305101886
aF-69.99692980587206
aF-69.99700468865566
aF-69.99707774502991
aF-69.99714901954138
aF-69.99721855565014
aF-69.99728639575623
aF-69.9973525812256
aF-69.99741715241522
aF-69.99748014869778
aF-69.99754160848563
aF-69.99760156925427
aF-69.99766006756515
aF-69.99771713908795
aF-69.9977728186224
aF-69.99782714011941
aF-69.99788013670187
aF-69.99793184068474
aF-69.99798228359487
aF-69.99803149619011
aF-69.99807950847816
aF-69.99812634973479
aF-69.99817204852175
aF-69.99821663270414
aF-69.99826012946745
aF-69.9983025653341
aF-69.9983439661796
aF-69.9983843572484
aF-69.99842376316917
aF-69.99846220796992
aF-69.9984997150926
aF-69.99853630740742
aF-69.99857200722676
aF-69.99860683631879
aF-69.99864081592077
aF-69.99867396675197
aF-69.9987063090263
aF-69.99873786246468
aF-69.998768646307
aF-69.9987986793239
aF-69.99882797982819
aF-69.99885656568604
aF-69.99888445432785
aF-69.99891166275887
aF-69.99893820756964
aF-69.99896410494598
aF-69.99898937067901
aF-69.99901402017464
aF-69.99903806846307
aF-69.99906153020787
aF-69.99908441971499
aF-69.99910675094145
aF-69.99912853750385
aF-69.99914979268668
aF-69.99917052945042
aF-69.99919076043943
aF-69.9992104979897
aF-69.99922975413628
aF-69.99924854062075
aF-69.9992668688983
aF-69.99928475014468
aF-69.9993021952631
aF-69.99931921489083
aF-69.99933581940569
aF-69.99935201893237
aF-69.99936782334865
aF-69.99938324229136
aF-69.9993982851623
aF-69.99941296113396
aF-69.99942727915509
aF-69.99944124795618
aF-69.99945487605481
aF-69.9994681717608
aF-69.99948114318127
aF-69.99949379822563
aF-69.99950614461036
aF-69.99951818986376
aF-69.99952994133051
aF-69.9995414061761
aF-69.99955259139132
aF-69.99956350379641
aF-69.99957415004528
aF-69.99958453662954
aF-69.99959466988248
aF-69.99960455598291
aF-69.99961420095894
aF-69.99962361069166
aF-69.9996327909187
aF-69.99964174723775
aF-69.99965048511
aF-69.99965900986341
aF-69.99966732669601
aF-69.99967544067904
aF-69.99968335676004
aF-69.9996910797659
aF-69.99969861440576
aF-69.9997059652739
aF-69.99971313685259
aF-69.99972013351473
aF-69.99972695952657
aF-69.99973361905032
aF-69.99974011614665
aF-69.99974645477722
aF-69.99975263880705
aF-69.99975867200688
aF-69.99976455805549
aF-69.99977030054194
aF-69.99977590296774
aF-69.99978136874901
aF-69.99978670121855
aF-69.99979190362785
aF-69.99979697914912
aF-69.9998019308772
aF-69.99980676183141
aF-69.99981147495747
aF-69.99981607312924
aF-69.99982055915048
aF-69.99982493575656
aF-69.99982920561617
aF-69.99983337133284
aF-69.99983743544668
aF-69.99984140043578
aF-69.99984526871783
aF-69.99984904265155
aF-69.9998527245381
aF-69.99985631662254
aF-69.99985982109516
aF-69.99986324009284
aF-69.99986657570032
aF-69.99986982995154
aF-69.99987300483076
aF-69.99987610227392
aF-69.99987912416968
aF-69.99988207236066
aF-69.99988494864455
aF-69.99988775477517
aF-69.99989049246358
aF-69.9998931633791
aF-69.99989576915034
aF-69.99989831136618
aF-69.99990079157676
aF-69.99990321129441
aF-69.99990557199455
aF-69.99990787511663
aF-69.999910122065
aF-69.99991231420977
aF-69.99991445288758
aF-69.99991653940252
aF-69.99991857502685
aF-69.99992056100182
aF-69.99992249853835
aF-69.9999243888179
aF-69.99992623299308
aF-69.99992803218836
aF-69.99992978750085
aF-69.99993150000083
aF-69.99993317073252
aF-69.99993480071466
aF-69.99993639094113
aF-69.99993794238159
aF-69.99993945598204
aF-69.99994093266541
aF-69.9999423733321
aF-69.99994377886058
aF-69.99994515010789
aF-69.99994648791014
aF-69.99994779308307
aF-69.9999490664225
aF-69.99995030870488
aF-69.99995152068769
aF-69.99995270310994
aF-69.99995385669263
aF-69.99995498213914
aF-69.99995608013575
aF-69.99995715135195
aF-69.99995819644093
aF-69.99995921603993
aF-69.99996021077067
aF-69.99996118123967
aF-69.9999621280387
aF-69.99996305174507
aF-69.99996395292202
aF-69.99996483211903
aF-69.99996568987223
aF-69.99996652670461
aF-69.99996734312646
aF-69.99996813963557
aF-69.99996891671763
aF-69.99996967484647
aF-69.99997041448437
aF-69.99997113608231
aF-69.9999718400803
aF-69.99997252690761
aF-69.99997319698303
aF-69.99997385071515
aF-69.99997448850259
aF-69.99997511073423
aF-69.99997571778948
aF-69.99997631003852
aF-69.99997688784246
aF-69.99997745155362
aF-69.99997800151573
aF-69.99997853806413
aF-69.99997906152598
aF-69.99997957222047
aF-69.99998007045899
aF-69.99998055654535
aF-69.99998103077596
aF-69.99998149343996
aF-69.99998194481947
aF-69.99998238518972
aF-69.99998281481925
aF-69.99998323397
aF-69.99998364289756
aF-69.99998404185128
aF-69.99998443107442
aF-69.99998481080432
aF-69.9999851812725
aF-69.99998554270489
aF-69.99998589532184
aF-69.99998623933838
aF-69.99998657496428
aF-69.99998690240417
aF-69.99998722185774
aF-69.99998753351974
aF-69.99998783758024
aF-69.99998813422462
aF-69.99998842363378
aF-69.99998870598418
aF-69.99998898144798
aF-69.99998925019315
aF-69.99998951238356
aF-69.99998976817909
aF-69.9999900177357
aF-69.99999026120555
aF-69.99999049873712
aF-69.99999073047523
aF-69.9999909565612
aF-69.99999117713288
aF-69.99999139232476
aF-69.99999160226805
aF-69.99999180709078
aF-69.99999200691784
aF-69.99999220187107
aF-69.99999239206933
aF-69.99999257762862
aF-69.99999275866206
aF-69.99999293528006
aF-69.9999931075903
aF-69.99999327569785
aF-69.99999343970522
aF-69.99999359971241
aF-69.99999375581699
aF-69.99999390811413
aF-69.99999405669672
aF-69.99999420165534
aF-69.99999434307838
aF-69.99999448105208
aF-69.99999461566057
aF-69.99999474698592
aF-69.99999487510821
aF-69.99999500010557
aF-69.99999512205422
aF-69.9999952410285
aF-69.99999535710097
aF-69.99999547034241
aF-69.99999558082186
aF-69.99999568860669
aF-69.99999579376262
aF-69.99999589635378
aF-69.9999959964427
aF-69.99999609409045
aF-69.99999618935654
aF-69.99999628229907
aF-69.99999637297469
aF-69.99999646143873
aF-69.9999965477451
aF-69.99999663194643
aF-69.99999671409408
aF-69.99999679423813
aF-69.99999687242745
aF-69.99999694870971
aF-69.99999702313143
aF-69.99999709573798
aF-69.99999716657364
aF-69.99999723568159
aF-69.999997303104
aF-69.99999736888195
aF-69.99999743305555
aF-69.99999749566396
aF-69.99999755674533
aF-69.9999976163369
aF-69.99999767447503
aF-69.99999773119515
aF-69.99999778653185
aF-69.99999784051887
aF-69.99999789318915
aF-69.99999794457477
aF-69.9999979947071
aF-69.99999804361669
aF-69.99999809133335
aF-69.9999981378862
aF-69.9999981833036
aF-69.99999822761328
aF-69.99999827084223
aF-69.9999983130168
aF-69.99999835416274
aF-69.99999839430511
aF-69.9999984334684
aF-69.99999847167649
aF-69.99999850895267
aF-69.99999854531968
aF-69.9999985807997
aF-69.99999861541434
aF-69.99999864918472
aF-69.99999868213143
aF-69.99999871427457
aF-69.99999874563372
aF-69.99999877622801
aF-69.9999988060761
aF-69.99999883519621
aF-69.99999886360605
aF-69.99999889132297
aF-69.99999891836387
aF-69.99999894474524
aF-69.99999897048316
aF-69.99999899559333
aF-69.99999902009105
aF-69.99999904399127
aF-69.99999906730855
aF-69.99999909005712
aF-69.99999911225085
aF-69.99999913390326
aF-69.99999915502757
aF-69.99999917563665
aF-69.99999919574307
aF-69.9999992153591
aF-69.99999923449668
aF-69.9999992531675
aF-69.99999927138293
aF-69.99999928915408
aF-69.99999930649179
aF-69.99999932340663
aF-69.99999933990891
aF-69.99999935600869
aF-69.99999937171579
aF-69.9999993870398
aF-69.99999940199004
aF-69.99999941657565
aF-69.99999943080552
aF-69.99999944468831
aF-69.9999994582325
aF-69.99999947144633
aF-69.99999948433788
aF-69.999999496915
aF-69.99999950918536
aF-69.99999952115644
aF-69.99999953283555
aF-69.9999995442298
aF-69.99999955534614
aF-69.99999956619135
aF-69.99999957677204
aF-69.99999958709468
aF-69.99999959716554
aF-69.99999960699077
aF-69.99999961657636
aF-69.99999962592815
aF-69.99999963505186
aF-69.99999964395303
aF-69.9999996526371
aF-69.99999966110937
aF-69.999999669375
aF-69.99999967743902
aF-69.99999968530636
aF-69.99999969298182
aF-69.99999970047007
aF-69.99999970777567
aF-69.9999997149031
aF-69.99999972185668
aF-69.99999972864066
aF-69.99999973525918
aF-69.99999974171628
aF-69.99999974801588
aF-69.99999975416183
aF-69.99999976015789
aF-69.9999997660077
aF-69.99999977171484
aF-69.99999977728277
aF-69.9999997827149
aF-69.99999978801453
aF-69.99999979318491
aF-69.99999979822918
aF-69.99999980315042
aF-69.99999980795162
aF-69.99999981263574
aF-69.99999981720559
aF-69.99999982166399
aF-69.99999982601365
aF-69.99999983025722
aF-69.99999983439729
aF-69.99999983843638
aF-69.99999984237695
aF-69.99999984622141
aF-69.99999984997211
aF-69.99999985363132
aF-69.99999985720129
aF-69.99999986068418
aF-69.99999986408213
aF-69.9999998673972
aF-69.99999987063141
aF-69.99999987378675
aF-69.99999987686512
aF-69.99999987986841
aF-69.99999988279845
aF-69.99999988565702
aF-69.99999988844587
aF-69.99999989116671
aF-69.99999989382118
aF-69.99999989641091
aF-69.99999989893747
aF-69.99999990140242
aF-69.99999990380724
aF-69.9999999061534
aF-69.99999990844235
aF-69.99999991067546
aF-69.99999991285411
aF-69.99999991497961
aF-69.99999991705327
aF-69.99999991907636
aF-69.9999999210501
aF-69.99999992297572
aF-69.99999992485436
aF-69.99999992668718
aF-69.9999999284753
aF-69.99999993021981
aF-69.99999993192176
aF-69.9999999335822
aF-69.99999993520215
aF-69.99999993678259
aF-69.99999993832448
aF-69.99999993982875
aF-69.99999994129635
aF-69.99999994272815
aF-69.99999994412502
aF-69.99999994548783
aF-69.9999999468174
aF-69.99999994811454
aF-69.99999994938004
aF-69.99999995061468
aF-69.9999999518192
aF-69.99999995299434
aF-69.99999995414082
aF-69.99999995525934
aF-69.99999995635058
aF-69.9999999574152
aF-69.99999995845386
aF-69.99999995946717
aF-69.99999996045578
aF-69.99999996142027
aF-69.99999996236124
aF-69.99999996327927
aF-69.99999996417489
a.